target datalayout = "e-m:e-p270:32:32-p271:32:32-p272:64:64-i64:64-i128:128-f80:128-n8:16:32:64-S128"
target triple = "x86_64-pc-linux-gnu"

%class.dependent_expr = type { ptr, ptr, ptr, ptr }
%class.dependent_expr_state = type { ptr, i32, i8, i32, i32, i32, %class.ast_mark, %class.ref_vector, %class.trail_stack }
%class.ast_mark = type { ptr, %class.obj_mark, %class.obj_mark.0 }
%class.obj_mark = type { [8 x i8], %class.bit_vector }
%class.bit_vector = type { i32, i32, ptr }
%class.obj_mark.0 = type { [8 x i8], %class.bit_vector }
%class.ref_vector = type { %class.ref_vector_core }
%class.ref_vector_core = type { %class.ref_manager_wrapper, %class.ptr_vector }
%class.ref_manager_wrapper = type { ptr }
%class.ptr_vector = type { %class.vector }
%class.vector = type { ptr }
%class.trail_stack = type { %class.ptr_vector.1, %class.svector, %class.region }
%class.ptr_vector.1 = type { %class.vector.2 }
%class.vector.2 = type { ptr }
%class.svector = type { %class.vector.3 }
%class.vector.3 = type { ptr }
%class.region = type { ptr, ptr, ptr, ptr, ptr }
%struct.default_t2uint = type { i8 }
%"struct.ast_mark::decl2uint" = type { i8 }

@_ZTV8ast_mark = external unnamed_addr constant { [6 x ptr] }, align 8

; Function Attrs: mustprogress uwtable
define linkonce_odr hidden void @_Z13dealloc_svectIjEvPT_(ptr noundef %0) #4 comdat {
  %2 = alloca ptr, align 8
  store ptr %0, ptr %2, align 8, !tbaa !118
  %3 = load ptr, ptr %2, align 8, !tbaa !118
  %4 = icmp eq ptr %3, null
  br i1 %4, label %5, label %6

5:                                                ; preds = %1
  br label %8

6:                                                ; preds = %1
  %7 = load ptr, ptr %2, align 8, !tbaa !118
  call void @_ZN6memory10deallocateEPv(ptr noundef %7)
  br label %8

8:                                                ; preds = %6, %5
  ret void
}

; Function Attrs: mustprogress nounwind uwtable
define linkonce_odr hidden void @_ZN10bit_vectorD2Ev(ptr noundef nonnull align 8 dereferenceable(16) %0) unnamed_addr #7 comdat align 2 personality ptr @__gxx_personality_v0 {
  %2 = alloca ptr, align 8
  store ptr %0, ptr %2, align 8, !tbaa !179
  %3 = load ptr, ptr %2, align 8
  %4 = getelementptr inbounds nuw %class.bit_vector, ptr %3, i32 0, i32 2
  %5 = load ptr, ptr %4, align 8, !tbaa !183
  invoke void @_Z13dealloc_svectIjEvPT_(ptr noundef %5)
          to label %6 unwind label %7

6:                                                ; preds = %1
  ret void

7:                                                ; preds = %1
  %8 = landingpad { ptr, i32 }
          catch ptr null
  %9 = extractvalue { ptr, i32 } %8, 0
  call void @__clang_call_terminate(ptr %9) #18
  unreachable
}

; Function Attrs: mustprogress nounwind uwtable
define linkonce_odr hidden void @_ZN10bit_vectorC2Ev(ptr noundef nonnull align 8 dereferenceable(16) %0) unnamed_addr #7 comdat align 2 {
  %2 = alloca ptr, align 8
  store ptr %0, ptr %2, align 8, !tbaa !179
  %3 = load ptr, ptr %2, align 8
  %4 = getelementptr inbounds nuw %class.bit_vector, ptr %3, i32 0, i32 0
  store i32 0, ptr %4, align 8, !tbaa !181
  %5 = getelementptr inbounds nuw %class.bit_vector, ptr %3, i32 0, i32 1
  store i32 0, ptr %5, align 4, !tbaa !182
  %6 = getelementptr inbounds nuw %class.bit_vector, ptr %3, i32 0, i32 2
  store ptr null, ptr %6, align 8, !tbaa !183
  ret void
}

; Function Attrs: inlinehint mustprogress nounwind uwtable
define linkonce_odr hidden void @_ZN8obj_markI4expr10bit_vector14default_t2uintIS0_EED2Ev(ptr noundef nonnull align 8 dereferenceable(24) %0) unnamed_addr #6 comdat align 2 {
  %2 = alloca ptr, align 8
  store ptr %0, ptr %2, align 8, !tbaa !171
  %3 = load ptr, ptr %2, align 8
  %4 = getelementptr inbounds nuw %class.obj_mark, ptr %3, i32 0, i32 1
  call void @_ZN10bit_vectorD2Ev(ptr noundef nonnull align 8 dereferenceable(16) %4) #3
  ret void
}

; Function Attrs: mustprogress uwtable
define linkonce_odr hidden void @_ZN8obj_markI4decl10bit_vectorN8ast_mark9decl2uintEEC2ERKS3_(ptr noundef nonnull align 8 dereferenceable(24) %0, ptr noundef nonnull align 1 dereferenceable(1) %1) unnamed_addr #4 comdat align 2 {
  %3 = alloca ptr, align 8
  %4 = alloca ptr, align 8
  store ptr %0, ptr %3, align 8, !tbaa !175
  store ptr %1, ptr %4, align 8, !tbaa !177
  %5 = load ptr, ptr %3, align 8
  %6 = getelementptr inbounds nuw %class.obj_mark.0, ptr %5, i32 0, i32 1
  call void @_ZN10bit_vectorC2Ev(ptr noundef nonnull align 8 dereferenceable(16) %6)
  ret void
}

; Function Attrs: mustprogress uwtable
define linkonce_odr hidden void @_ZN8obj_markI4expr10bit_vector14default_t2uintIS0_EEC2ERKS3_(ptr noundef nonnull align 8 dereferenceable(24) %0, ptr noundef nonnull align 1 dereferenceable(1) %1) unnamed_addr #4 comdat align 2 {
  %3 = alloca ptr, align 8
  %4 = alloca ptr, align 8
  store ptr %0, ptr %3, align 8, !tbaa !171
  store ptr %1, ptr %4, align 8, !tbaa !173
  %5 = load ptr, ptr %3, align 8
  %6 = getelementptr inbounds nuw %class.obj_mark, ptr %5, i32 0, i32 1
  call void @_ZN10bit_vectorC2Ev(ptr noundef nonnull align 8 dereferenceable(16) %6)
  ret void
}

; Function Attrs: mustprogress nounwind uwtable
define linkonce_odr hidden noundef ptr @_ZNK14dependent_expr3fmlEv(ptr noundef nonnull align 8 dereferenceable(32) %0) #7 comdat align 2 {
  %2 = alloca ptr, align 8
  store ptr %0, ptr %2, align 8, !tbaa !16
  %3 = load ptr, ptr %2, align 8
  %4 = getelementptr inbounds nuw %class.dependent_expr, ptr %3, i32 0, i32 1
  %5 = load ptr, ptr %4, align 8, !tbaa !18
  ret ptr %5
}

; Function Attrs: mustprogress nounwind uwtable
define linkonce_odr hidden noundef i32 @_ZNK20dependent_expr_state5qheadEv(ptr noundef nonnull align 8 dereferenceable(160) %0) #7 comdat align 2 {
  %2 = alloca ptr, align 8
  store ptr %0, ptr %2, align 8, !tbaa !3
  %3 = load ptr, ptr %2, align 8
  %4 = getelementptr inbounds nuw %class.dependent_expr_state, ptr %3, i32 0, i32 1
  %5 = load i32, ptr %4, align 8, !tbaa !136
  ret i32 %5
}

; Function Attrs: inlinehint mustprogress uwtable
define linkonce_odr hidden void @_ZN8ast_markC2Ev(ptr noundef nonnull align 8 dereferenceable(56) %0) unnamed_addr #8 comdat align 2 personality ptr @__gxx_personality_v0 {
  %2 = alloca ptr, align 8
  %3 = alloca %struct.default_t2uint, align 1
  %4 = alloca %"struct.ast_mark::decl2uint", align 1
  %5 = alloca ptr, align 8
  %6 = alloca i32, align 4
  store ptr %0, ptr %2, align 8, !tbaa !38
  %7 = load ptr, ptr %2, align 8
  store ptr getelementptr inbounds inrange(-16, 32) ({ [6 x ptr] }, ptr @_ZTV8ast_mark, i32 0, i32 0, i32 2), ptr %7, align 8, !tbaa !10
  %8 = getelementptr inbounds nuw %class.ast_mark, ptr %7, i32 0, i32 1
  call void @llvm.lifetime.start.p0(i64 1, ptr %3) #3
  call void @_ZN8obj_markI4expr10bit_vector14default_t2uintIS0_EEC2ERKS3_(ptr noundef nonnull align 8 dereferenceable(24) %8, ptr noundef nonnull align 1 dereferenceable(1) %3)
  call void @llvm.lifetime.end.p0(i64 1, ptr %3) #3
  %9 = getelementptr inbounds nuw %class.ast_mark, ptr %7, i32 0, i32 2
  call void @llvm.lifetime.start.p0(i64 1, ptr %4) #3
  invoke void @_ZN8obj_markI4decl10bit_vectorN8ast_mark9decl2uintEEC2ERKS3_(ptr noundef nonnull align 8 dereferenceable(24) %9, ptr noundef nonnull align 1 dereferenceable(1) %4)
          to label %10 unwind label %11

10:                                               ; preds = %1
  call void @llvm.lifetime.end.p0(i64 1, ptr %4) #3
  ret void

11:                                               ; preds = %1
  %12 = landingpad { ptr, i32 }
          cleanup
  %13 = extractvalue { ptr, i32 } %12, 0
  store ptr %13, ptr %5, align 8
  %14 = extractvalue { ptr, i32 } %12, 1
  store i32 %14, ptr %6, align 4
  call void @llvm.lifetime.end.p0(i64 1, ptr %4) #3
  call void @_ZN8obj_markI4expr10bit_vector14default_t2uintIS0_EED2Ev(ptr noundef nonnull align 8 dereferenceable(24) %8) #3
  br label %15

15:                                               ; preds = %11
  %16 = load ptr, ptr %5, align 8
  %17 = load i32, ptr %6, align 4
  %18 = insertvalue { ptr, i32 } poison, ptr %16, 0
  %19 = insertvalue { ptr, i32 } %18, i32 %17, 1
  resume { ptr, i32 } %19
}

; Function Attrs: mustprogress uwtable
define hidden void @_ZN20dependent_expr_state13freeze_prefixEv(ptr noundef nonnull align 8 dereferenceable(160) %0) #4 align 2 personality ptr @__gxx_personality_v0 {
  %2 = alloca ptr, align 8
  %3 = alloca %class.ast_mark, align 8
  %4 = alloca i32, align 4
  %5 = alloca ptr, align 8
  %6 = alloca i32, align 4
  store ptr %0, ptr %2, align 8, !tbaa !3
  %7 = load ptr, ptr %2, align 8
  call void @llvm.lifetime.start.p0(i64 56, ptr %3) #3
  call void @_ZN8ast_markC2Ev(ptr noundef nonnull align 8 dereferenceable(56) %3)
  call void @llvm.lifetime.start.p0(i64 4, ptr %4) #3
  %8 = invoke noundef i32 @_ZNK20dependent_expr_state5qheadEv(ptr noundef nonnull align 8 dereferenceable(160) %7)
          to label %9 unwind label %19

9:                                                ; preds = %1
  store i32 %8, ptr %4, align 4, !tbaa !8
  br label %10

10:                                               ; preds = %33, %9
  %11 = load i32, ptr %4, align 4, !tbaa !8
  %12 = load ptr, ptr %7, align 8, !tbaa !10
  %13 = getelementptr inbounds ptr, ptr %12, i64 2
  %14 = load ptr, ptr %13, align 8
  %15 = invoke noundef i32 %14(ptr noundef nonnull align 8 dereferenceable(160) %7)
          to label %16 unwind label %19

16:                                               ; preds = %10
  %17 = icmp ult i32 %11, %15
  br i1 %17, label %23, label %18

18:                                               ; preds = %16
  call void @llvm.lifetime.end.p0(i64 4, ptr %4) #3
  br label %36

19:                                               ; preds = %31, %29, %23, %10, %1
  %20 = landingpad { ptr, i32 }
          cleanup
  %21 = extractvalue { ptr, i32 } %20, 0
  store ptr %21, ptr %5, align 8
  %22 = extractvalue { ptr, i32 } %20, 1
  store i32 %22, ptr %6, align 4
  call void @llvm.lifetime.end.p0(i64 4, ptr %4) #3
  call void @_ZN8ast_markD2Ev(ptr noundef nonnull align 8 dereferenceable(56) %3) #3
  call void @llvm.lifetime.end.p0(i64 56, ptr %3) #3
  br label %37

23:                                               ; preds = %16
  %24 = load i32, ptr %4, align 4, !tbaa !8
  %25 = load ptr, ptr %7, align 8, !tbaa !10
  %26 = getelementptr inbounds ptr, ptr %25, i64 3
  %27 = load ptr, ptr %26, align 8
  %28 = invoke noundef nonnull align 8 dereferenceable(32) ptr %27(ptr noundef nonnull align 8 dereferenceable(160) %7, i32 noundef %24)
          to label %29 unwind label %19

29:                                               ; preds = %23
  %30 = invoke noundef ptr @_ZNK14dependent_expr3fmlEv(ptr noundef nonnull align 8 dereferenceable(32) %28)
          to label %31 unwind label %19

31:                                               ; preds = %29
  invoke void @_ZN20dependent_expr_state12freeze_termsEP4exprbR8ast_mark(ptr noundef nonnull align 8 dereferenceable(160) %7, ptr noundef %30, i1 noundef zeroext false, ptr noundef nonnull align 8 dereferenceable(56) %3)
          to label %32 unwind label %19

32:                                               ; preds = %31
  br label %33

33:                                               ; preds = %32
  %34 = load i32, ptr %4, align 4, !tbaa !8
  %35 = add i32 %34, 1
  store i32 %35, ptr %4, align 4, !tbaa !8
  br label %10, !llvm.loop !135

36:                                               ; preds = %18
  call void @_ZN8ast_markD2Ev(ptr noundef nonnull align 8 dereferenceable(56) %3) #3
  call void @llvm.lifetime.end.p0(i64 56, ptr %3) #3
  ret void

37:                                               ; preds = %19
  %38 = load ptr, ptr %5, align 8
  %39 = load i32, ptr %6, align 4
  %40 = insertvalue { ptr, i32 } poison, ptr %38, 0
  %41 = insertvalue { ptr, i32 } %40, i32 %39, 1
  resume { ptr, i32 } %41
}