; Function Attrs: mustprogress uwtable
define hidden void @_ZN20dependent_expr_state13freeze_prefixEv(ptr noundef nonnull align 8 dereferenceable(160) %0) local_unnamed_addr #3 align 2 personality ptr @__gxx_personality_v0 {
  %2 = alloca %class.ast_mark, align 8
  call void @llvm.lifetime.start.p0(i64 56, ptr nonnull %2) #19
  store ptr getelementptr inbounds nuw inrange(-16, 32) (i8, ptr @_ZTV8ast_mark, i64 16), ptr %2, align 8, !tbaa !13
  %3 = getelementptr inbounds nuw i8, ptr %2, i64 16
  call void @llvm.memset.p0.i64(ptr noundef nonnull align 8 dereferenceable(16) %3, i8 0, i64 16, i1 false)
  %4 = getelementptr inbounds nuw i8, ptr %2, i64 40
  call void @llvm.memset.p0.i64(ptr noundef nonnull align 8 dereferenceable(16) %4, i8 0, i64 16, i1 false)
  %5 = getelementptr inbounds nuw i8, ptr %0, i64 8
  %6 = load i32, ptr %5, align 8, !tbaa !177
  br label %7

7:                                                ; preds = %39, %1
  %.0 = phi i32 [ %6, %1 ], [ %40, %39 ]
  %8 = load ptr, ptr %0, align 8, !tbaa !13
  %9 = getelementptr inbounds nuw i8, ptr %8, i64 16
  %10 = load ptr, ptr %9, align 8
  %11 = invoke noundef i32 %10(ptr noundef nonnull align 8 dereferenceable(160) %0)
          to label %12 unwind label %29

12:                                               ; preds = %7
  %13 = icmp ult i32 %.0, %11
  br i1 %13, label %31, label %14

14:                                               ; preds = %12
  store ptr getelementptr inbounds nuw inrange(-16, 32) (i8, ptr @_ZTV8ast_mark, i64 16), ptr %2, align 8, !tbaa !13
  %15 = getelementptr inbounds nuw i8, ptr %2, i64 48
  %16 = load ptr, ptr %15, align 8, !tbaa !48
  %17 = icmp eq ptr %16, null
  br i1 %17, label %_ZN8obj_markI4decl10bit_vectorN8ast_mark9decl2uintEED2Ev.exit.i, label %18

18:                                               ; preds = %14
  invoke void @_ZN6memory10deallocateEPv(ptr noundef nonnull %16)
          to label %_ZN8obj_markI4decl10bit_vectorN8ast_mark9decl2uintEED2Ev.exit.i unwind label %19

19:                                               ; preds = %18
  %20 = landingpad { ptr, i32 }
          catch ptr null
  %21 = extractvalue { ptr, i32 } %20, 0
  call void @__clang_call_terminate(ptr %21) #20
  unreachable

_ZN8obj_markI4decl10bit_vectorN8ast_mark9decl2uintEED2Ev.exit.i: ; preds = %18, %14
  %22 = getelementptr inbounds nuw i8, ptr %2, i64 24
  %23 = load ptr, ptr %22, align 8, !tbaa !48
  %24 = icmp eq ptr %23, null
  br i1 %24, label %_ZN8ast_markD2Ev.exit, label %25

25:                                               ; preds = %_ZN8obj_markI4decl10bit_vectorN8ast_mark9decl2uintEED2Ev.exit.i
  invoke void @_ZN6memory10deallocateEPv(ptr noundef nonnull %23)
          to label %_ZN8ast_markD2Ev.exit unwind label %26

26:                                               ; preds = %25
  %27 = landingpad { ptr, i32 }
          catch ptr null
  %28 = extractvalue { ptr, i32 } %27, 0
  call void @__clang_call_terminate(ptr %28) #20
  unreachable

_ZN8ast_markD2Ev.exit:                            ; preds = %_ZN8obj_markI4decl10bit_vectorN8ast_mark9decl2uintEED2Ev.exit.i, %25
  call void @llvm.lifetime.end.p0(i64 56, ptr nonnull %2) #19
  ret void

29:                                               ; preds = %36, %31, %7
  %30 = landingpad { ptr, i32 }
          cleanup
  call void @_ZN8ast_markD2Ev(ptr noundef nonnull align 8 dereferenceable(56) %2) #19
  call void @llvm.lifetime.end.p0(i64 56, ptr nonnull %2) #19
  resume { ptr, i32 } %30

31:                                               ; preds = %12
  %32 = load ptr, ptr %0, align 8, !tbaa !13
  %33 = getelementptr inbounds nuw i8, ptr %32, i64 24
  %34 = load ptr, ptr %33, align 8
  %35 = invoke noundef nonnull align 8 dereferenceable(32) ptr %34(ptr noundef nonnull align 8 dereferenceable(160) %0, i32 noundef %.0)
          to label %36 unwind label %29

36:                                               ; preds = %31
  %37 = getelementptr inbounds nuw i8, ptr %35, i64 8
  %38 = load ptr, ptr %37, align 8, !tbaa !17
  invoke void @_ZN20dependent_expr_state12freeze_termsEP4exprbR8ast_mark(ptr noundef nonnull align 8 dereferenceable(160) %0, ptr noundef %38, i1 noundef zeroext false, ptr noundef nonnull align 8 dereferenceable(56) %2)
          to label %39 unwind label %29

39:                                               ; preds = %36
  %40 = add nuw i32 %.0, 1
  br label %7, !llvm.loop !178
}